target datalayout = "e-m:e-p270:32:32-p271:32:32-p272:64:64-i64:64-i128:128-f80:128-n8:16:32:64-S128"
target triple = "x86_64-pc-linux-gnu"

%"struct.std::_Rb_tree_iterator" = type { ptr }
%"class.google::protobuf::internal::ExtensionSet" = type { ptr, i16, i16, %"union.google::protobuf::internal::ExtensionSet::AllocatedData" }
%"union.google::protobuf::internal::ExtensionSet::AllocatedData" = type { ptr }
%"struct.google::protobuf::internal::ExtensionSet::Extension" = type { %union.anon, i8, i8, i8, i8, i32, ptr }
%union.anon = type { i64 }
%class.anon.16 = type { ptr }
%"class.std::map.26" = type { %"class.std::_Rb_tree.27" }
%"class.std::_Rb_tree.27" = type { %"struct.std::_Rb_tree<int, std::pair<const int, google::protobuf::internal::ExtensionSet::Extension>, std::_Select1st<std::pair<const int, google::protobuf::internal::ExtensionSet::Extension>>, std::less<int>>::_Rb_tree_impl" }
%"struct.std::_Rb_tree<int, std::pair<const int, google::protobuf::internal::ExtensionSet::Extension>, std::_Select1st<std::pair<const int, google::protobuf::internal::ExtensionSet::Extension>>, std::less<int>>::_Rb_tree_impl" = type { [8 x i8], %"struct.std::_Rb_tree_header" }
%"struct.std::_Rb_tree_header" = type { %"struct.std::_Rb_tree_node_base", i64 }
%"struct.std::_Rb_tree_node_base" = type { i32, ptr, ptr, ptr }
%"struct.google::protobuf::internal::ExtensionSet::KeyValue" = type { i32, %"struct.google::protobuf::internal::ExtensionSet::Extension" }

; Function Attrs: mustprogress nounwind uwtable
define linkonce_odr hidden void @_ZNSt17_Rb_tree_iteratorISt4pairIKiN6google8protobuf8internal12ExtensionSet9ExtensionEEEC2EPSt18_Rb_tree_node_base(ptr noundef nonnull align 8 dereferenceable(8) %0, ptr noundef %1) unnamed_addr #9 comdat align 2 {
  %3 = alloca ptr, align 8
  %4 = alloca ptr, align 8
  store ptr %0, ptr %3, align 8, !tbaa !293
  store ptr %1, ptr %4, align 8, !tbaa !284
  %5 = load ptr, ptr %3, align 8
  %6 = getelementptr inbounds nuw %"struct.std::_Rb_tree_iterator", ptr %5, i32 0, i32 0
  %7 = load ptr, ptr %4, align 8, !tbaa !284
  store ptr %7, ptr %6, align 8, !tbaa !295
  ret void
}

; Function Attrs: inlinehint mustprogress uwtable
define internal void @"_ZZNK6google8protobuf8internal12ExtensionSet26SpaceUsedExcludingSelfLongEvENK3$_0clEiRKNS2_9ExtensionE"(ptr noundef nonnull align 8 dereferenceable(8) %0, i32 noundef %1, ptr noundef nonnull align 8 dereferenceable(24) %2) #6 align 2 {
  %4 = alloca ptr, align 8
  %5 = alloca i32, align 4
  %6 = alloca ptr, align 8
  store ptr %0, ptr %4, align 8, !tbaa !76
  store i32 %1, ptr %5, align 4, !tbaa !10
  store ptr %2, ptr %6, align 8, !tbaa !44
  %7 = load ptr, ptr %4, align 8
  %8 = load ptr, ptr %6, align 8, !tbaa !44
  %9 = call noundef i64 @_ZNK6google8protobuf8internal12ExtensionSet9Extension26SpaceUsedExcludingSelfLongEv(ptr noundef nonnull align 8 dereferenceable(24) %8)
  %10 = getelementptr inbounds nuw %class.anon.16, ptr %7, i32 0, i32 0
  %11 = load ptr, ptr %10, align 8, !tbaa !393
  %12 = load i64, ptr %11, align 8, !tbaa !27
  %13 = add i64 %12, %9
  store i64 %13, ptr %11, align 8, !tbaa !27
  ret void
}

; Function Attrs: mustprogress nounwind uwtable
define linkonce_odr hidden ptr @_ZNSt8_Rb_treeIiSt4pairIKiN6google8protobuf8internal12ExtensionSet9ExtensionEESt10_Select1stIS7_ESt4lessIiESaIS7_EE3endEv(ptr noundef nonnull align 8 dereferenceable(48) %0) #9 comdat align 2 {
  %2 = alloca %"struct.std::_Rb_tree_iterator", align 8
  %3 = alloca ptr, align 8
  store ptr %0, ptr %3, align 8, !tbaa !228
  %4 = load ptr, ptr %3, align 8
  %5 = getelementptr inbounds nuw %"class.std::_Rb_tree.27", ptr %4, i32 0, i32 0
  %6 = getelementptr inbounds i8, ptr %5, i64 8
  %7 = getelementptr inbounds nuw %"struct.std::_Rb_tree_header", ptr %6, i32 0, i32 0
  call void @_ZNSt17_Rb_tree_iteratorISt4pairIKiN6google8protobuf8internal12ExtensionSet9ExtensionEEEC2EPSt18_Rb_tree_node_base(ptr noundef nonnull align 8 dereferenceable(8) %2, ptr noundef %7) #3
  %8 = getelementptr inbounds nuw %"struct.std::_Rb_tree_iterator", ptr %2, i32 0, i32 0
  %9 = load ptr, ptr %8, align 8
  ret ptr %9
}

; Function Attrs: mustprogress nounwind uwtable
define linkonce_odr hidden ptr @_ZNSt8_Rb_treeIiSt4pairIKiN6google8protobuf8internal12ExtensionSet9ExtensionEESt10_Select1stIS7_ESt4lessIiESaIS7_EE5beginEv(ptr noundef nonnull align 8 dereferenceable(48) %0) #9 comdat align 2 {
  %2 = alloca %"struct.std::_Rb_tree_iterator", align 8
  %3 = alloca ptr, align 8
  store ptr %0, ptr %3, align 8, !tbaa !228
  %4 = load ptr, ptr %3, align 8
  %5 = getelementptr inbounds nuw %"class.std::_Rb_tree.27", ptr %4, i32 0, i32 0
  %6 = getelementptr inbounds i8, ptr %5, i64 8
  %7 = getelementptr inbounds nuw %"struct.std::_Rb_tree_header", ptr %6, i32 0, i32 0
  %8 = getelementptr inbounds nuw %"struct.std::_Rb_tree_node_base", ptr %7, i32 0, i32 2
  %9 = load ptr, ptr %8, align 8, !tbaa !320
  call void @_ZNSt17_Rb_tree_iteratorISt4pairIKiN6google8protobuf8internal12ExtensionSet9ExtensionEEEC2EPSt18_Rb_tree_node_base(ptr noundef nonnull align 8 dereferenceable(8) %2, ptr noundef %9) #3
  %10 = getelementptr inbounds nuw %"struct.std::_Rb_tree_iterator", ptr %2, i32 0, i32 0
  %11 = load ptr, ptr %10, align 8
  ret ptr %11
}

; Function Attrs: mustprogress nounwind uwtable
define linkonce_odr hidden noundef i64 @_ZNKSt8_Rb_treeIiSt4pairIKiN6google8protobuf8internal12ExtensionSet9ExtensionEESt10_Select1stIS7_ESt4lessIiESaIS7_EE4sizeEv(ptr noundef nonnull align 8 dereferenceable(48) %0) #9 comdat align 2 {
  %2 = alloca ptr, align 8
  store ptr %0, ptr %2, align 8, !tbaa !228
  %3 = load ptr, ptr %2, align 8
  %4 = getelementptr inbounds nuw %"class.std::_Rb_tree.27", ptr %3, i32 0, i32 0
  %5 = getelementptr inbounds i8, ptr %4, i64 8
  %6 = getelementptr inbounds nuw %"struct.std::_Rb_tree_header", ptr %5, i32 0, i32 1
  %7 = load i64, ptr %6, align 8, !tbaa !230
  ret i64 %7
}

; Function Attrs: mustprogress uwtable
define internal ptr @"_ZN6google8protobuf8internal12ExtensionSet7ForEachIPKNS2_8KeyValueEZNKS2_26SpaceUsedExcludingSelfLongEvE3$_0EET0_T_S9_S8_"(ptr noundef %0, ptr noundef %1, ptr %2) #4 align 2 {
  %4 = alloca %class.anon.16, align 8
  %5 = alloca %class.anon.16, align 8
  %6 = alloca ptr, align 8
  %7 = alloca ptr, align 8
  %8 = alloca ptr, align 8
  %9 = getelementptr inbounds nuw %class.anon.16, ptr %5, i32 0, i32 0
  store ptr %2, ptr %9, align 8
  store ptr %0, ptr %6, align 8, !tbaa !288
  store ptr %1, ptr %7, align 8, !tbaa !288
  call void @llvm.lifetime.start.p0(i64 8, ptr %8) #3
  %10 = load ptr, ptr %6, align 8, !tbaa !288
  store ptr %10, ptr %8, align 8, !tbaa !288
  br label %11

11:                                               ; preds = %22, %3
  %12 = load ptr, ptr %8, align 8, !tbaa !288
  %13 = load ptr, ptr %7, align 8, !tbaa !288
  %14 = icmp ne ptr %12, %13
  br i1 %14, label %16, label %15

15:                                               ; preds = %11
  call void @llvm.lifetime.end.p0(i64 8, ptr %8) #3
  br label %25

16:                                               ; preds = %11
  %17 = load ptr, ptr %8, align 8, !tbaa !288
  %18 = getelementptr inbounds nuw %"struct.google::protobuf::internal::ExtensionSet::KeyValue", ptr %17, i32 0, i32 0
  %19 = load i32, ptr %18, align 8, !tbaa !290
  %20 = load ptr, ptr %8, align 8, !tbaa !288
  %21 = getelementptr inbounds nuw %"struct.google::protobuf::internal::ExtensionSet::KeyValue", ptr %20, i32 0, i32 1
  call void @"_ZZNK6google8protobuf8internal12ExtensionSet26SpaceUsedExcludingSelfLongEvENK3$_0clEiRKNS2_9ExtensionE"(ptr noundef nonnull align 8 dereferenceable(8) %5, i32 noundef %19, ptr noundef nonnull align 8 dereferenceable(24) %21)
  br label %22

22:                                               ; preds = %16
  %23 = load ptr, ptr %8, align 8, !tbaa !288
  %24 = getelementptr inbounds nuw %"struct.google::protobuf::internal::ExtensionSet::KeyValue", ptr %23, i32 1
  store ptr %24, ptr %8, align 8, !tbaa !288
  br label %11, !llvm.loop !392

25:                                               ; preds = %15
  call void @llvm.memcpy.p0.p0.i64(ptr align 8 %4, ptr align 8 %5, i64 8, i1 false), !tbaa.struct !156
  %26 = getelementptr inbounds nuw %class.anon.16, ptr %4, i32 0, i32 0
  %27 = load ptr, ptr %26, align 8
  ret ptr %27
}

; Function Attrs: mustprogress nounwind uwtable
define linkonce_odr hidden noundef ptr @_ZNK6google8protobuf8internal12ExtensionSet8flat_endEv(ptr noundef nonnull align 8 dereferenceable(24) %0) #9 comdat align 2 {
  %2 = alloca ptr, align 8
  store ptr %0, ptr %2, align 8, !tbaa !29
  %3 = load ptr, ptr %2, align 8
  %4 = getelementptr inbounds nuw %"class.google::protobuf::internal::ExtensionSet", ptr %3, i32 0, i32 3
  %5 = load ptr, ptr %4, align 8, !tbaa !26
  %6 = getelementptr inbounds nuw %"class.google::protobuf::internal::ExtensionSet", ptr %3, i32 0, i32 2
  %7 = load i16, ptr %6, align 2, !tbaa !155
  %8 = zext i16 %7 to i32
  %9 = sext i32 %8 to i64
  %10 = getelementptr inbounds %"struct.google::protobuf::internal::ExtensionSet::KeyValue", ptr %5, i64 %9
  ret ptr %10
}

; Function Attrs: mustprogress nounwind uwtable
define linkonce_odr hidden noundef ptr @_ZNK6google8protobuf8internal12ExtensionSet10flat_beginEv(ptr noundef nonnull align 8 dereferenceable(24) %0) #9 comdat align 2 {
  %2 = alloca ptr, align 8
  store ptr %0, ptr %2, align 8, !tbaa !29
  %3 = load ptr, ptr %2, align 8
  %4 = getelementptr inbounds nuw %"class.google::protobuf::internal::ExtensionSet", ptr %3, i32 0, i32 3
  %5 = load ptr, ptr %4, align 8, !tbaa !26
  ret ptr %5
}

; Function Attrs: mustprogress nounwind uwtable
define linkonce_odr hidden ptr @_ZNSt3mapIiN6google8protobuf8internal12ExtensionSet9ExtensionESt4lessIiESaISt4pairIKiS4_EEE3endEv(ptr noundef nonnull align 8 dereferenceable(48) %0) #9 comdat align 2 {
  %2 = alloca %"struct.std::_Rb_tree_iterator", align 8
  %3 = alloca ptr, align 8
  store ptr %0, ptr %3, align 8, !tbaa !226
  %4 = load ptr, ptr %3, align 8
  %5 = getelementptr inbounds nuw %"class.std::map.26", ptr %4, i32 0, i32 0
  %6 = call ptr @_ZNSt8_Rb_treeIiSt4pairIKiN6google8protobuf8internal12ExtensionSet9ExtensionEESt10_Select1stIS7_ESt4lessIiESaIS7_EE3endEv(ptr noundef nonnull align 8 dereferenceable(48) %5) #3
  %7 = getelementptr inbounds nuw %"struct.std::_Rb_tree_iterator", ptr %2, i32 0, i32 0
  store ptr %6, ptr %7, align 8
  %8 = getelementptr inbounds nuw %"struct.std::_Rb_tree_iterator", ptr %2, i32 0, i32 0
  %9 = load ptr, ptr %8, align 8
  ret ptr %9
}

; Function Attrs: mustprogress nounwind uwtable
define linkonce_odr hidden ptr @_ZNSt3mapIiN6google8protobuf8internal12ExtensionSet9ExtensionESt4lessIiESaISt4pairIKiS4_EEE5beginEv(ptr noundef nonnull align 8 dereferenceable(48) %0) #9 comdat align 2 {
  %2 = alloca %"struct.std::_Rb_tree_iterator", align 8
  %3 = alloca ptr, align 8
  store ptr %0, ptr %3, align 8, !tbaa !226
  %4 = load ptr, ptr %3, align 8
  %5 = getelementptr inbounds nuw %"class.std::map.26", ptr %4, i32 0, i32 0
  %6 = call ptr @_ZNSt8_Rb_treeIiSt4pairIKiN6google8protobuf8internal12ExtensionSet9ExtensionEESt10_Select1stIS7_ESt4lessIiESaIS7_EE5beginEv(ptr noundef nonnull align 8 dereferenceable(48) %5) #3
  %7 = getelementptr inbounds nuw %"struct.std::_Rb_tree_iterator", ptr %2, i32 0, i32 0
  store ptr %6, ptr %7, align 8
  %8 = getelementptr inbounds nuw %"struct.std::_Rb_tree_iterator", ptr %2, i32 0, i32 0
  %9 = load ptr, ptr %8, align 8
  ret ptr %9
}

; Function Attrs: mustprogress nounwind uwtable
define linkonce_odr hidden noundef i64 @_ZNKSt3mapIiN6google8protobuf8internal12ExtensionSet9ExtensionESt4lessIiESaISt4pairIKiS4_EEE4sizeEv(ptr noundef nonnull align 8 dereferenceable(48) %0) #9 comdat align 2 {
  %2 = alloca ptr, align 8
  store ptr %0, ptr %2, align 8, !tbaa !226
  %3 = load ptr, ptr %2, align 8
  %4 = getelementptr inbounds nuw %"class.std::map.26", ptr %3, i32 0, i32 0
  %5 = call noundef i64 @_ZNKSt8_Rb_treeIiSt4pairIKiN6google8protobuf8internal12ExtensionSet9ExtensionEESt10_Select1stIS7_ESt4lessIiESaIS7_EE4sizeEv(ptr noundef nonnull align 8 dereferenceable(48) %4) #3
  ret i64 %5
}

; Function Attrs: mustprogress nounwind uwtable
define linkonce_odr hidden noundef zeroext i1 @_ZNK6google8protobuf8internal12ExtensionSet8is_largeEv(ptr noundef nonnull align 8 dereferenceable(24) %0) #9 comdat align 2 {
  %2 = alloca ptr, align 8
  store ptr %0, ptr %2, align 8, !tbaa !29
  %3 = load ptr, ptr %2, align 8
  %4 = getelementptr inbounds nuw %"class.google::protobuf::internal::ExtensionSet", ptr %3, i32 0, i32 2
  %5 = load i16, ptr %4, align 2, !tbaa !155
  %6 = sext i16 %5 to i32
  %7 = icmp slt i32 %6, 0
  ret i1 %7
}

; Function Attrs: mustprogress uwtable
define internal ptr @"_ZNK6google8protobuf8internal12ExtensionSet7ForEachIZNKS2_26SpaceUsedExcludingSelfLongEvE3$_0EET_S5_"(ptr noundef nonnull align 8 dereferenceable(24) %0, ptr %1) #4 align 2 {
  %3 = alloca %class.anon.16, align 8
  %4 = alloca %class.anon.16, align 8
  %5 = alloca ptr, align 8
  %6 = alloca %"struct.std::_Rb_tree_iterator", align 8
  %7 = alloca %"struct.std::_Rb_tree_iterator", align 8
  %8 = alloca %class.anon.16, align 8
  %9 = alloca %class.anon.16, align 8
  %10 = getelementptr inbounds nuw %class.anon.16, ptr %4, i32 0, i32 0
  store ptr %1, ptr %10, align 8
  store ptr %0, ptr %5, align 8, !tbaa !29
  %11 = load ptr, ptr %5, align 8
  %12 = call noundef zeroext i1 @_ZNK6google8protobuf8internal12ExtensionSet8is_largeEv(ptr noundef nonnull align 8 dereferenceable(24) %11)
  %13 = zext i1 %12 to i64
  %14 = call i64 @llvm.expect.i64(i64 %13, i64 0)
  %15 = icmp ne i64 %14, 0
  br i1 %15, label %16, label %33

16:                                               ; preds = %2
  %17 = getelementptr inbounds nuw %"class.google::protobuf::internal::ExtensionSet", ptr %11, i32 0, i32 3
  %18 = load ptr, ptr %17, align 8, !tbaa !26
  %19 = call ptr @_ZNSt3mapIiN6google8protobuf8internal12ExtensionSet9ExtensionESt4lessIiESaISt4pairIKiS4_EEE5beginEv(ptr noundef nonnull align 8 dereferenceable(48) %18) #3
  %20 = getelementptr inbounds nuw %"struct.std::_Rb_tree_iterator", ptr %6, i32 0, i32 0
  store ptr %19, ptr %20, align 8
  %21 = getelementptr inbounds nuw %"class.google::protobuf::internal::ExtensionSet", ptr %11, i32 0, i32 3
  %22 = load ptr, ptr %21, align 8, !tbaa !26
  %23 = call ptr @_ZNSt3mapIiN6google8protobuf8internal12ExtensionSet9ExtensionESt4lessIiESaISt4pairIKiS4_EEE3endEv(ptr noundef nonnull align 8 dereferenceable(48) %22) #3
  %24 = getelementptr inbounds nuw %"struct.std::_Rb_tree_iterator", ptr %7, i32 0, i32 0
  store ptr %23, ptr %24, align 8
  call void @llvm.memcpy.p0.p0.i64(ptr align 8 %8, ptr align 8 %4, i64 8, i1 false), !tbaa.struct !156
  %25 = getelementptr inbounds nuw %"struct.std::_Rb_tree_iterator", ptr %6, i32 0, i32 0
  %26 = load ptr, ptr %25, align 8
  %27 = getelementptr inbounds nuw %"struct.std::_Rb_tree_iterator", ptr %7, i32 0, i32 0
  %28 = load ptr, ptr %27, align 8
  %29 = getelementptr inbounds nuw %class.anon.16, ptr %8, i32 0, i32 0
  %30 = load ptr, ptr %29, align 8
  %31 = call ptr @"_ZN6google8protobuf8internal12ExtensionSet7ForEachISt17_Rb_tree_iteratorISt4pairIKiNS2_9ExtensionEEEZNKS2_26SpaceUsedExcludingSelfLongEvE3$_0EET0_T_SC_SB_"(ptr %26, ptr %28, ptr %30)
  %32 = getelementptr inbounds nuw %class.anon.16, ptr %3, i32 0, i32 0
  store ptr %31, ptr %32, align 8
  br label %40

33:                                               ; preds = %2
  %34 = call noundef ptr @_ZNK6google8protobuf8internal12ExtensionSet10flat_beginEv(ptr noundef nonnull align 8 dereferenceable(24) %11)
  %35 = call noundef ptr @_ZNK6google8protobuf8internal12ExtensionSet8flat_endEv(ptr noundef nonnull align 8 dereferenceable(24) %11)
  call void @llvm.memcpy.p0.p0.i64(ptr align 8 %9, ptr align 8 %4, i64 8, i1 false), !tbaa.struct !156
  %36 = getelementptr inbounds nuw %class.anon.16, ptr %9, i32 0, i32 0
  %37 = load ptr, ptr %36, align 8
  %38 = call ptr @"_ZN6google8protobuf8internal12ExtensionSet7ForEachIPKNS2_8KeyValueEZNKS2_26SpaceUsedExcludingSelfLongEvE3$_0EET0_T_S9_S8_"(ptr noundef %34, ptr noundef %35, ptr %37)
  %39 = getelementptr inbounds nuw %class.anon.16, ptr %3, i32 0, i32 0
  store ptr %38, ptr %39, align 8
  br label %40

40:                                               ; preds = %33, %16
  %41 = getelementptr inbounds nuw %class.anon.16, ptr %3, i32 0, i32 0
  %42 = load ptr, ptr %41, align 8
  ret ptr %42
}

; Function Attrs: mustprogress uwtable
define linkonce_odr hidden noundef i64 @_ZNK6google8protobuf8internal12ExtensionSet4SizeEv(ptr noundef nonnull align 8 dereferenceable(24) %0) #4 comdat align 2 {
  %2 = alloca ptr, align 8
  store ptr %0, ptr %2, align 8, !tbaa !29
  %3 = load ptr, ptr %2, align 8
  %4 = call noundef zeroext i1 @_ZNK6google8protobuf8internal12ExtensionSet8is_largeEv(ptr noundef nonnull align 8 dereferenceable(24) %3)
  %5 = zext i1 %4 to i64
  %6 = call i64 @llvm.expect.i64(i64 %5, i64 0)
  %7 = icmp ne i64 %6, 0
  br i1 %7, label %8, label %12

8:                                                ; preds = %1
  %9 = getelementptr inbounds nuw %"class.google::protobuf::internal::ExtensionSet", ptr %3, i32 0, i32 3
  %10 = load ptr, ptr %9, align 8, !tbaa !26
  %11 = call noundef i64 @_ZNKSt3mapIiN6google8protobuf8internal12ExtensionSet9ExtensionESt4lessIiESaISt4pairIKiS4_EEE4sizeEv(ptr noundef nonnull align 8 dereferenceable(48) %10) #3
  br label %16

12:                                               ; preds = %1
  %13 = getelementptr inbounds nuw %"class.google::protobuf::internal::ExtensionSet", ptr %3, i32 0, i32 2
  %14 = load i16, ptr %13, align 2, !tbaa !155
  %15 = zext i16 %14 to i64
  br label %16

16:                                               ; preds = %12, %8
  %17 = phi i64 [ %11, %8 ], [ %15, %12 ]
  ret i64 %17
}

; Function Attrs: mustprogress uwtable
define hidden noundef i64 @_ZNK6google8protobuf8internal12ExtensionSet26SpaceUsedExcludingSelfLongEv(ptr noundef nonnull align 8 dereferenceable(24) %0) #4 align 2 {
  %2 = alloca ptr, align 8
  %3 = alloca i64, align 8
  %4 = alloca %class.anon.16, align 8
  %5 = alloca %class.anon.16, align 8
  store ptr %0, ptr %2, align 8, !tbaa !29
  %6 = load ptr, ptr %2, align 8
  call void @llvm.lifetime.start.p0(i64 8, ptr %3) #3
  %7 = call noundef i64 @_ZNK6google8protobuf8internal12ExtensionSet4SizeEv(ptr noundef nonnull align 8 dereferenceable(24) %6)
  %8 = mul i64 %7, 32
  store i64 %8, ptr %3, align 8, !tbaa !27
  %9 = getelementptr inbounds nuw %class.anon.16, ptr %4, i32 0, i32 0
  store ptr %3, ptr %9, align 8, !tbaa !153
  %10 = getelementptr inbounds nuw %class.anon.16, ptr %4, i32 0, i32 0
  %11 = load ptr, ptr %10, align 8
  %12 = call ptr @"_ZNK6google8protobuf8internal12ExtensionSet7ForEachIZNKS2_26SpaceUsedExcludingSelfLongEvE3$_0EET_S5_"(ptr noundef nonnull align 8 dereferenceable(24) %6, ptr %11)
  %13 = getelementptr inbounds nuw %class.anon.16, ptr %5, i32 0, i32 0
  store ptr %12, ptr %13, align 8
  %14 = load i64, ptr %3, align 8, !tbaa !27
  call void @llvm.lifetime.end.p0(i64 8, ptr %3) #3
  ret i64 %14
}