; Function Attrs: mustprogress uwtable
define hidden noundef i64 @_ZNK6google8protobuf8internal12ExtensionSet26SpaceUsedExcludingSelfLongEv(ptr noundef nonnull readonly align 8 captures(none) dereferenceable(24) %0) local_unnamed_addr #3 align 2 {
  %2 = alloca i64, align 8
  call void @llvm.lifetime.start.p0(i64 8, ptr nonnull %2) #21
  %3 = getelementptr inbounds nuw i8, ptr %0, i64 10
  %4 = load i16, ptr %3, align 2, !tbaa !23
  %5 = icmp slt i16 %4, 0
  br i1 %5, label %6, label %16, !prof !27

6:                                                ; preds = %1
  %7 = getelementptr inbounds nuw i8, ptr %0, i64 16
  %8 = load ptr, ptr %7, align 8, !tbaa !16
  %9 = getelementptr inbounds nuw i8, ptr %8, i64 40
  %10 = load i64, ptr %9, align 8, !tbaa !149
  %11 = shl i64 %10, 5
  store i64 %11, ptr %2, align 8, !tbaa !150
  %12 = getelementptr inbounds nuw i8, ptr %8, i64 24
  %13 = load ptr, ptr %12, align 8, !tbaa !28
  %14 = getelementptr inbounds nuw i8, ptr %8, i64 8
  %15 = call fastcc ptr @"_ZN6google8protobuf8internal12ExtensionSet7ForEachISt17_Rb_tree_iteratorISt4pairIKiNS2_9ExtensionEEEZNKS2_26SpaceUsedExcludingSelfLongEvE3$_0EET0_T_SC_SB_"(ptr %13, ptr nonnull %14, ptr nonnull %2)
  %.pre = load i64, ptr %2, align 8, !tbaa !150
  br label %"_ZNK6google8protobuf8internal12ExtensionSet7ForEachIZNKS2_26SpaceUsedExcludingSelfLongEvE3$_0EET_S5_.exit"

16:                                               ; preds = %1
  %17 = zext nneg i16 %4 to i64
  %18 = shl nuw nsw i64 %17, 5
  %19 = getelementptr inbounds nuw i8, ptr %0, i64 16
  %.val2 = load ptr, ptr %19, align 8
  %20 = getelementptr inbounds nuw %"struct.google::protobuf::internal::ExtensionSet::KeyValue", ptr %.val2, i64 %17
  %.not6.i.i = icmp eq i16 %4, 0
  br i1 %.not6.i.i, label %"_ZNK6google8protobuf8internal12ExtensionSet7ForEachIZNKS2_26SpaceUsedExcludingSelfLongEvE3$_0EET_S5_.exit", label %.lr.ph.i.i

.lr.ph.i.i:                                       ; preds = %16, %.lr.ph.i.i
  %21 = phi i64 [ %24, %.lr.ph.i.i ], [ %18, %16 ]
  %.07.i.i = phi ptr [ %25, %.lr.ph.i.i ], [ %.val2, %16 ]
  %22 = getelementptr inbounds nuw i8, ptr %.07.i.i, i64 8
  %23 = tail call noundef i64 @_ZNK6google8protobuf8internal12ExtensionSet9Extension26SpaceUsedExcludingSelfLongEv(ptr noundef nonnull readonly align 8 dereferenceable(24) %22)
  %24 = add i64 %21, %23
  %25 = getelementptr inbounds nuw i8, ptr %.07.i.i, i64 32
  %.not.i.i = icmp eq ptr %25, %20
  br i1 %.not.i.i, label %"_ZNK6google8protobuf8internal12ExtensionSet7ForEachIZNKS2_26SpaceUsedExcludingSelfLongEvE3$_0EET_S5_.exit", label %.lr.ph.i.i, !llvm.loop !151

"_ZNK6google8protobuf8internal12ExtensionSet7ForEachIZNKS2_26SpaceUsedExcludingSelfLongEvE3$_0EET_S5_.exit": ; preds = %.lr.ph.i.i, %6, %16
  %26 = phi i64 [ %.pre, %6 ], [ %18, %16 ], [ %24, %.lr.ph.i.i ]
  call void @llvm.lifetime.end.p0(i64 8, ptr nonnull %2) #21
  ret i64 %26
}